target datalayout = "e-m:e-p270:32:32-p271:32:32-p272:64:64-i64:64-i128:128-f80:128-n8:16:32:64-S128"
target triple = "x86_64-pc-linux-gnu"

%struct._xmlDoc = type { ptr, i32, ptr, ptr, ptr, ptr, ptr, ptr, ptr, i32, i32, ptr, ptr, ptr, ptr, ptr, ptr, ptr, ptr, i32, ptr, ptr, i32, i32 }
%struct._lexbor_libxml2_bridge_extracted_observations = type { i8, i8, i8 }
%struct._xmlDOMWrapCtxt = type { ptr, i32, ptr, ptr }
%struct._xmlNode = type { ptr, i32, ptr, ptr, ptr, ptr, ptr, ptr, ptr, ptr, ptr, ptr, ptr, ptr, i16, i16 }

@.str.114 = private unnamed_addr constant [5 x i8] c"html\00", align 1
@.str.115 = private unnamed_addr constant [5 x i8] c"head\00", align 1
@.str.116 = private unnamed_addr constant [5 x i8] c"body\00", align 1

; Function Attrs: nounwind uwtable
define internal void @dom_place_remove_element_and_hoist_children(ptr noundef %0, ptr noundef %1) #0 {
  %3 = alloca ptr, align 8
  %4 = alloca ptr, align 8
  %5 = alloca ptr, align 8
  %6 = alloca ptr, align 8
  store ptr %0, ptr %3, align 8
  store ptr %1, ptr %4, align 8
  %7 = load ptr, ptr %3, align 8
  %8 = load ptr, ptr %4, align 8
  %9 = call ptr @dom_search_child(ptr noundef %7, ptr noundef %8)
  store ptr %9, ptr %5, align 8
  %10 = load ptr, ptr %5, align 8
  %11 = icmp ne ptr %10, null
  br i1 %11, label %12, label %30

12:                                               ; preds = %2
  %13 = load ptr, ptr %5, align 8
  call void @xmlUnlinkNode(ptr noundef %13)
  %14 = load ptr, ptr %5, align 8
  %15 = getelementptr inbounds %struct._xmlNode, ptr %14, i32 0, i32 3
  %16 = load ptr, ptr %15, align 8
  store ptr %16, ptr %6, align 8
  br label %17

17:                                               ; preds = %20, %12
  %18 = load ptr, ptr %6, align 8
  %19 = icmp ne ptr %18, null
  br i1 %19, label %20, label %28

20:                                               ; preds = %17
  %21 = load ptr, ptr %6, align 8
  call void @xmlUnlinkNode(ptr noundef %21)
  %22 = load ptr, ptr %3, align 8
  %23 = load ptr, ptr %6, align 8
  %24 = call ptr @xmlAddChild(ptr noundef %22, ptr noundef %23)
  %25 = load ptr, ptr %5, align 8
  %26 = getelementptr inbounds %struct._xmlNode, ptr %25, i32 0, i32 3
  %27 = load ptr, ptr %26, align 8
  store ptr %27, ptr %6, align 8
  br label %17

28:                                               ; preds = %17
  %29 = load ptr, ptr %5, align 8
  call void @xmlFreeNode(ptr noundef %29)
  br label %30

30:                                               ; preds = %28, %2
  ret void
}

; Function Attrs: nounwind uwtable
define internal ptr @dom_search_child(ptr noundef %0, ptr noundef %1) #0 {
  %3 = alloca ptr, align 8
  %4 = alloca ptr, align 8
  %5 = alloca ptr, align 8
  %6 = alloca ptr, align 8
  store ptr %0, ptr %4, align 8
  store ptr %1, ptr %5, align 8
  %7 = load ptr, ptr %4, align 8
  %8 = getelementptr inbounds %struct._xmlNode, ptr %7, i32 0, i32 3
  %9 = load ptr, ptr %8, align 8
  store ptr %9, ptr %6, align 8
  br label %10

10:                                               ; preds = %27, %2
  %11 = load ptr, ptr %6, align 8
  %12 = icmp ne ptr %11, null
  br i1 %12, label %13, label %31

13:                                               ; preds = %10
  %14 = load ptr, ptr %6, align 8
  %15 = getelementptr inbounds %struct._xmlNode, ptr %14, i32 0, i32 1
  %16 = load i32, ptr %15, align 8
  %17 = icmp eq i32 %16, 1
  br i1 %17, label %18, label %27

18:                                               ; preds = %13
  %19 = load ptr, ptr %6, align 8
  %20 = getelementptr inbounds %struct._xmlNode, ptr %19, i32 0, i32 2
  %21 = load ptr, ptr %20, align 8
  %22 = load ptr, ptr %5, align 8
  %23 = call i32 @strcmp(ptr noundef %21, ptr noundef %22) #10
  %24 = icmp eq i32 %23, 0
  br i1 %24, label %25, label %27

25:                                               ; preds = %18
  %26 = load ptr, ptr %6, align 8
  store ptr %26, ptr %3, align 8
  br label %32

27:                                               ; preds = %18, %13
  %28 = load ptr, ptr %6, align 8
  %29 = getelementptr inbounds %struct._xmlNode, ptr %28, i32 0, i32 6
  %30 = load ptr, ptr %29, align 8
  store ptr %30, ptr %6, align 8
  br label %10

31:                                               ; preds = %10
  store ptr null, ptr %3, align 8
  br label %32

32:                                               ; preds = %31, %25
  %33 = load ptr, ptr %3, align 8
  ret ptr %33
}

; Function Attrs: nounwind uwtable
define internal void @dom_post_process_html5_loading(ptr noundef %0, i64 noundef %1, ptr noundef %2) #0 {
  %4 = alloca ptr, align 8
  %5 = alloca i64, align 8
  %6 = alloca ptr, align 8
  %7 = alloca ptr, align 8
  %8 = alloca ptr, align 8
  %9 = alloca %struct._xmlDOMWrapCtxt, align 8
  store ptr %0, ptr %4, align 8
  store i64 %1, ptr %5, align 8
  store ptr %2, ptr %6, align 8
  %10 = load i64, ptr %5, align 8
  %11 = and i64 %10, 8192
  %12 = icmp ne i64 %11, 0
  br i1 %12, label %13, label %76

13:                                               ; preds = %3
  %14 = load ptr, ptr %4, align 8
  %15 = call ptr @dom_search_child(ptr noundef %14, ptr noundef @.str.114)
  store ptr %15, ptr %7, align 8
  %16 = load ptr, ptr %6, align 8
  %17 = getelementptr inbounds %struct._lexbor_libxml2_bridge_extracted_observations, ptr %16, i32 0, i32 1
  %18 = load i8, ptr %17, align 1
  %19 = trunc i8 %18 to i1
  br i1 %19, label %22, label %20

20:                                               ; preds = %13
  %21 = load ptr, ptr %7, align 8
  call void @dom_place_remove_element_and_hoist_children(ptr noundef %21, ptr noundef @.str.115)
  br label %22

22:                                               ; preds = %20, %13
  %23 = load ptr, ptr %6, align 8
  %24 = getelementptr inbounds %struct._lexbor_libxml2_bridge_extracted_observations, ptr %23, i32 0, i32 2
  %25 = load i8, ptr %24, align 1
  %26 = trunc i8 %25 to i1
  br i1 %26, label %29, label %27

27:                                               ; preds = %22
  %28 = load ptr, ptr %7, align 8
  call void @dom_place_remove_element_and_hoist_children(ptr noundef %28, ptr noundef @.str.116)
  br label %29

29:                                               ; preds = %27, %22
  %30 = load ptr, ptr %6, align 8
  %31 = getelementptr inbounds %struct._lexbor_libxml2_bridge_extracted_observations, ptr %30, i32 0, i32 0
  %32 = load i8, ptr %31, align 1
  %33 = trunc i8 %32 to i1
  br i1 %33, label %75, label %34

34:                                               ; preds = %29
  %35 = load i64, ptr %5, align 8
  %36 = and i64 %35, 2147483648
  %37 = icmp ne i64 %36, 0
  br i1 %37, label %45, label %38

38:                                               ; preds = %34
  %39 = load ptr, ptr %4, align 8
  %40 = load ptr, ptr %7, align 8
  %41 = getelementptr inbounds %struct._xmlNode, ptr %40, i32 0, i32 12
  %42 = load ptr, ptr %41, align 8
  call void @php_libxml_set_old_ns(ptr noundef %39, ptr noundef %42)
  %43 = load ptr, ptr %7, align 8
  %44 = getelementptr inbounds %struct._xmlNode, ptr %43, i32 0, i32 12
  store ptr null, ptr %44, align 8
  br label %45

45:                                               ; preds = %38, %34
  %46 = load ptr, ptr %4, align 8
  call void @dom_place_remove_element_and_hoist_children(ptr noundef %46, ptr noundef @.str.114)
  %47 = load i64, ptr %5, align 8
  %48 = and i64 %47, 2147483648
  %49 = icmp ne i64 %48, 0
  br i1 %49, label %74, label %50

50:                                               ; preds = %45
  %51 = load ptr, ptr %4, align 8
  %52 = getelementptr inbounds %struct._xmlDoc, ptr %51, i32 0, i32 3
  %53 = load ptr, ptr %52, align 8
  %54 = icmp ne ptr %53, null
  %55 = xor i1 %54, true
  %56 = xor i1 %55, true
  %57 = zext i1 %56 to i32
  %58 = sext i32 %57 to i64
  %59 = icmp ne i64 %58, 0
  br i1 %59, label %60, label %74

60:                                               ; preds = %50
  %61 = load ptr, ptr %4, align 8
  %62 = getelementptr inbounds %struct._xmlDoc, ptr %61, i32 0, i32 3
  %63 = load ptr, ptr %62, align 8
  store ptr %63, ptr %8, align 8
  br label %64

64:                                               ; preds = %67, %60
  %65 = load ptr, ptr %8, align 8
  %66 = icmp ne ptr %65, null
  br i1 %66, label %67, label %73

67:                                               ; preds = %64
  call void @llvm.memset.p0.i64(ptr align 8 %9, i8 0, i64 32, i1 false)
  %68 = load ptr, ptr %8, align 8
  %69 = call i32 @xmlDOMWrapReconcileNamespaces(ptr noundef %9, ptr noundef %68, i32 noundef 0)
  %70 = load ptr, ptr %8, align 8
  %71 = getelementptr inbounds %struct._xmlNode, ptr %70, i32 0, i32 6
  %72 = load ptr, ptr %71, align 8
  store ptr %72, ptr %8, align 8
  br label %64

73:                                               ; preds = %64
  br label %74

74:                                               ; preds = %73, %50, %45
  br label %75

75:                                               ; preds = %74, %29
  br label %76

76:                                               ; preds = %75, %3
  ret void
}