; Function Attrs: nounwind uwtable
define internal fastcc void @dom_post_process_html5_loading(ptr noundef %0, i64 noundef %1, ptr nocapture noundef readonly %2) unnamed_addr #0 {
  %4 = alloca %struct._xmlDOMWrapCtxt, align 8
  %5 = and i64 %1, 8192
  %.not = icmp eq i64 %5, 0
  br i1 %.not, label %dom_place_remove_element_and_hoist_children.exit70, label %6

6:                                                ; preds = %3
  %7 = getelementptr inbounds i8, ptr %0, i64 24
  %.09.i = load ptr, ptr %7, align 8
  %.not10.i = icmp eq ptr %.09.i, null
  br i1 %.not10.i, label %dom_search_child.exit, label %.lr.ph.i

.lr.ph.i:                                         ; preds = %6, %16
  %.011.i = phi ptr [ %.0.i, %16 ], [ %.09.i, %6 ]
  %8 = getelementptr inbounds i8, ptr %.011.i, i64 8
  %9 = load i32, ptr %8, align 8
  %10 = icmp eq i32 %9, 1
  br i1 %10, label %11, label %16

11:                                               ; preds = %.lr.ph.i
  %12 = getelementptr inbounds i8, ptr %.011.i, i64 16
  %13 = load ptr, ptr %12, align 8
  %14 = tail call i32 @strcmp(ptr noundef nonnull dereferenceable(1) %13, ptr noundef nonnull dereferenceable(5) @.str.114) #12
  %15 = icmp eq i32 %14, 0
  br i1 %15, label %dom_search_child.exit, label %16

16:                                               ; preds = %11, %.lr.ph.i
  %17 = getelementptr inbounds i8, ptr %.011.i, i64 48
  %.0.i = load ptr, ptr %17, align 8
  %.not.i = icmp eq ptr %.0.i, null
  br i1 %.not.i, label %dom_search_child.exit, label %.lr.ph.i

dom_search_child.exit:                            ; preds = %11, %16, %6
  %.0.lcssa.i = phi ptr [ null, %6 ], [ %.011.i, %11 ], [ null, %16 ]
  %18 = getelementptr inbounds i8, ptr %2, i64 1
  %19 = load i8, ptr %18, align 1
  %20 = and i8 %19, 1
  %.not18 = icmp eq i8 %20, 0
  br i1 %.not18, label %21, label %dom_place_remove_element_and_hoist_children.exit

21:                                               ; preds = %dom_search_child.exit
  %22 = getelementptr inbounds i8, ptr %.0.lcssa.i, i64 24
  %.09.i.i = load ptr, ptr %22, align 8
  %.not10.i.i = icmp eq ptr %.09.i.i, null
  br i1 %.not10.i.i, label %dom_place_remove_element_and_hoist_children.exit, label %.lr.ph.i.i

.lr.ph.i.i:                                       ; preds = %21, %31
  %.011.i.i = phi ptr [ %.0.i.i, %31 ], [ %.09.i.i, %21 ]
  %23 = getelementptr inbounds i8, ptr %.011.i.i, i64 8
  %24 = load i32, ptr %23, align 8
  %25 = icmp eq i32 %24, 1
  br i1 %25, label %26, label %31

26:                                               ; preds = %.lr.ph.i.i
  %27 = getelementptr inbounds i8, ptr %.011.i.i, i64 16
  %28 = load ptr, ptr %27, align 8
  %29 = tail call i32 @strcmp(ptr noundef nonnull dereferenceable(1) %28, ptr noundef nonnull dereferenceable(5) @.str.115) #12
  %30 = icmp eq i32 %29, 0
  br i1 %30, label %dom_search_child.exit.i, label %31

31:                                               ; preds = %26, %.lr.ph.i.i
  %32 = getelementptr inbounds i8, ptr %.011.i.i, i64 48
  %.0.i.i = load ptr, ptr %32, align 8
  %.not.i.i = icmp eq ptr %.0.i.i, null
  br i1 %.not.i.i, label %dom_place_remove_element_and_hoist_children.exit, label %.lr.ph.i.i

dom_search_child.exit.i:                          ; preds = %26
  tail call void @xmlUnlinkNode(ptr noundef nonnull %.011.i.i) #11
  %33 = getelementptr inbounds i8, ptr %.011.i.i, i64 24
  %.016.i = load ptr, ptr %33, align 8
  %.not1217.i = icmp eq ptr %.016.i, null
  br i1 %.not1217.i, label %._crit_edge.i, label %.lr.ph.i24

.lr.ph.i24:                                       ; preds = %dom_search_child.exit.i, %.lr.ph.i24
  %.018.i = phi ptr [ %.0.i25, %.lr.ph.i24 ], [ %.016.i, %dom_search_child.exit.i ]
  tail call void @xmlUnlinkNode(ptr noundef nonnull %.018.i) #11
  %34 = tail call ptr @xmlAddChild(ptr noundef %.0.lcssa.i, ptr noundef nonnull %.018.i) #11
  %.0.i25 = load ptr, ptr %33, align 8
  %.not12.i = icmp eq ptr %.0.i25, null
  br i1 %.not12.i, label %._crit_edge.i, label %.lr.ph.i24

._crit_edge.i:                                    ; preds = %.lr.ph.i24, %dom_search_child.exit.i
  tail call void @xmlFreeNode(ptr noundef nonnull %.011.i.i) #11
  br label %dom_place_remove_element_and_hoist_children.exit

dom_place_remove_element_and_hoist_children.exit: ; preds = %31, %._crit_edge.i, %21, %dom_search_child.exit
  %35 = getelementptr inbounds i8, ptr %2, i64 2
  %36 = load i8, ptr %35, align 1
  %37 = and i8 %36, 1
  %.not19 = icmp eq i8 %37, 0
  br i1 %.not19, label %38, label %dom_place_remove_element_and_hoist_children.exit40

38:                                               ; preds = %dom_place_remove_element_and_hoist_children.exit
  %39 = getelementptr inbounds i8, ptr %.0.lcssa.i, i64 24
  %.09.i.i26 = load ptr, ptr %39, align 8
  %.not10.i.i27 = icmp eq ptr %.09.i.i26, null
  br i1 %.not10.i.i27, label %dom_place_remove_element_and_hoist_children.exit40, label %.lr.ph.i.i28

.lr.ph.i.i28:                                     ; preds = %38, %48
  %.011.i.i29 = phi ptr [ %.0.i.i30, %48 ], [ %.09.i.i26, %38 ]
  %40 = getelementptr inbounds i8, ptr %.011.i.i29, i64 8
  %41 = load i32, ptr %40, align 8
  %42 = icmp eq i32 %41, 1
  br i1 %42, label %43, label %48

43:                                               ; preds = %.lr.ph.i.i28
  %44 = getelementptr inbounds i8, ptr %.011.i.i29, i64 16
  %45 = load ptr, ptr %44, align 8
  %46 = tail call i32 @strcmp(ptr noundef nonnull dereferenceable(1) %45, ptr noundef nonnull dereferenceable(5) @.str.116) #12
  %47 = icmp eq i32 %46, 0
  br i1 %47, label %dom_search_child.exit.i32, label %48

48:                                               ; preds = %43, %.lr.ph.i.i28
  %49 = getelementptr inbounds i8, ptr %.011.i.i29, i64 48
  %.0.i.i30 = load ptr, ptr %49, align 8
  %.not.i.i31 = icmp eq ptr %.0.i.i30, null
  br i1 %.not.i.i31, label %dom_place_remove_element_and_hoist_children.exit40, label %.lr.ph.i.i28

dom_search_child.exit.i32:                        ; preds = %43
  tail call void @xmlUnlinkNode(ptr noundef nonnull %.011.i.i29) #11
  %50 = getelementptr inbounds i8, ptr %.011.i.i29, i64 24
  %.016.i33 = load ptr, ptr %50, align 8
  %.not1217.i34 = icmp eq ptr %.016.i33, null
  br i1 %.not1217.i34, label %._crit_edge.i39, label %.lr.ph.i35

.lr.ph.i35:                                       ; preds = %dom_search_child.exit.i32, %.lr.ph.i35
  %.018.i36 = phi ptr [ %.0.i37, %.lr.ph.i35 ], [ %.016.i33, %dom_search_child.exit.i32 ]
  tail call void @xmlUnlinkNode(ptr noundef nonnull %.018.i36) #11
  %51 = tail call ptr @xmlAddChild(ptr noundef %.0.lcssa.i, ptr noundef nonnull %.018.i36) #11
  %.0.i37 = load ptr, ptr %50, align 8
  %.not12.i38 = icmp eq ptr %.0.i37, null
  br i1 %.not12.i38, label %._crit_edge.i39, label %.lr.ph.i35

._crit_edge.i39:                                  ; preds = %.lr.ph.i35, %dom_search_child.exit.i32
  tail call void @xmlFreeNode(ptr noundef nonnull %.011.i.i29) #11
  br label %dom_place_remove_element_and_hoist_children.exit40

dom_place_remove_element_and_hoist_children.exit40: ; preds = %48, %._crit_edge.i39, %38, %dom_place_remove_element_and_hoist_children.exit
  %52 = load i8, ptr %2, align 1
  %53 = and i8 %52, 1
  %.not20 = icmp eq i8 %53, 0
  br i1 %.not20, label %54, label %dom_place_remove_element_and_hoist_children.exit70

54:                                               ; preds = %dom_place_remove_element_and_hoist_children.exit40
  %55 = and i64 %1, 2147483648
  %.not21 = icmp eq i64 %55, 0
  br i1 %.not21, label %56, label %.critedge

56:                                               ; preds = %54
  %57 = getelementptr inbounds i8, ptr %.0.lcssa.i, i64 96
  %58 = load ptr, ptr %57, align 8
  tail call void @php_libxml_set_old_ns(ptr noundef %0, ptr noundef %58) #11
  store ptr null, ptr %57, align 8
  %.09.i.i41 = load ptr, ptr %7, align 8
  %.not10.i.i42 = icmp eq ptr %.09.i.i41, null
  br i1 %.not10.i.i42, label %dom_place_remove_element_and_hoist_children.exit70, label %.lr.ph.i.i43

.lr.ph.i.i43:                                     ; preds = %56, %67
  %.011.i.i44 = phi ptr [ %.0.i.i45, %67 ], [ %.09.i.i41, %56 ]
  %59 = getelementptr inbounds i8, ptr %.011.i.i44, i64 8
  %60 = load i32, ptr %59, align 8
  %61 = icmp eq i32 %60, 1
  br i1 %61, label %62, label %67

62:                                               ; preds = %.lr.ph.i.i43
  %63 = getelementptr inbounds i8, ptr %.011.i.i44, i64 16
  %64 = load ptr, ptr %63, align 8
  %65 = tail call i32 @strcmp(ptr noundef nonnull dereferenceable(1) %64, ptr noundef nonnull dereferenceable(5) @.str.114) #12
  %66 = icmp eq i32 %65, 0
  br i1 %66, label %dom_search_child.exit.i47, label %67

67:                                               ; preds = %62, %.lr.ph.i.i43
  %68 = getelementptr inbounds i8, ptr %.011.i.i44, i64 48
  %.0.i.i45 = load ptr, ptr %68, align 8
  %.not.i.i46 = icmp eq ptr %.0.i.i45, null
  br i1 %.not.i.i46, label %dom_place_remove_element_and_hoist_children.exit55, label %.lr.ph.i.i43

dom_search_child.exit.i47:                        ; preds = %62
  tail call void @xmlUnlinkNode(ptr noundef nonnull %.011.i.i44) #11
  %69 = getelementptr inbounds i8, ptr %.011.i.i44, i64 24
  %.016.i48 = load ptr, ptr %69, align 8
  %.not1217.i49 = icmp eq ptr %.016.i48, null
  br i1 %.not1217.i49, label %._crit_edge.i54, label %.lr.ph.i50

.lr.ph.i50:                                       ; preds = %dom_search_child.exit.i47, %.lr.ph.i50
  %.018.i51 = phi ptr [ %.0.i52, %.lr.ph.i50 ], [ %.016.i48, %dom_search_child.exit.i47 ]
  tail call void @xmlUnlinkNode(ptr noundef nonnull %.018.i51) #11
  %70 = tail call ptr @xmlAddChild(ptr noundef %0, ptr noundef nonnull %.018.i51) #11
  %.0.i52 = load ptr, ptr %69, align 8
  %.not12.i53 = icmp eq ptr %.0.i52, null
  br i1 %.not12.i53, label %._crit_edge.i54, label %.lr.ph.i50

._crit_edge.i54:                                  ; preds = %.lr.ph.i50, %dom_search_child.exit.i47
  tail call void @xmlFreeNode(ptr noundef nonnull %.011.i.i44) #11
  %.pr.pre = load ptr, ptr %7, align 8
  br label %dom_place_remove_element_and_hoist_children.exit55

dom_place_remove_element_and_hoist_children.exit55: ; preds = %67, %._crit_edge.i54
  %.pr = phi ptr [ %.pr.pre, %._crit_edge.i54 ], [ %.09.i.i41, %67 ]
  %.not22 = icmp eq ptr %.pr, null
  br i1 %.not22, label %dom_place_remove_element_and_hoist_children.exit70, label %.preheader

.preheader:                                       ; preds = %dom_place_remove_element_and_hoist_children.exit55, %.preheader
  %.077 = phi ptr [ %73, %.preheader ], [ %.pr, %dom_place_remove_element_and_hoist_children.exit55 ]
  call void @llvm.memset.p0.i64(ptr noundef nonnull align 8 dereferenceable(32) %4, i8 0, i64 32, i1 false)
  %71 = call i32 @xmlDOMWrapReconcileNamespaces(ptr noundef nonnull %4, ptr noundef nonnull %.077, i32 noundef 0) #11
  %72 = getelementptr inbounds i8, ptr %.077, i64 48
  %73 = load ptr, ptr %72, align 8
  %.not23 = icmp eq ptr %73, null
  br i1 %.not23, label %dom_place_remove_element_and_hoist_children.exit70, label %.preheader

.critedge:                                        ; preds = %54
  %.09.i.i56 = load ptr, ptr %7, align 8
  %.not10.i.i57 = icmp eq ptr %.09.i.i56, null
  br i1 %.not10.i.i57, label %dom_place_remove_element_and_hoist_children.exit70, label %.lr.ph.i.i58

.lr.ph.i.i58:                                     ; preds = %.critedge, %82
  %.011.i.i59 = phi ptr [ %.0.i.i60, %82 ], [ %.09.i.i56, %.critedge ]
  %74 = getelementptr inbounds i8, ptr %.011.i.i59, i64 8
  %75 = load i32, ptr %74, align 8
  %76 = icmp eq i32 %75, 1
  br i1 %76, label %77, label %82

77:                                               ; preds = %.lr.ph.i.i58
  %78 = getelementptr inbounds i8, ptr %.011.i.i59, i64 16
  %79 = load ptr, ptr %78, align 8
  %80 = tail call i32 @strcmp(ptr noundef nonnull dereferenceable(1) %79, ptr noundef nonnull dereferenceable(5) @.str.114) #12
  %81 = icmp eq i32 %80, 0
  br i1 %81, label %dom_search_child.exit.i62, label %82

82:                                               ; preds = %77, %.lr.ph.i.i58
  %83 = getelementptr inbounds i8, ptr %.011.i.i59, i64 48
  %.0.i.i60 = load ptr, ptr %83, align 8
  %.not.i.i61 = icmp eq ptr %.0.i.i60, null
  br i1 %.not.i.i61, label %dom_place_remove_element_and_hoist_children.exit70, label %.lr.ph.i.i58

dom_search_child.exit.i62:                        ; preds = %77
  tail call void @xmlUnlinkNode(ptr noundef nonnull %.011.i.i59) #11
  %84 = getelementptr inbounds i8, ptr %.011.i.i59, i64 24
  %.016.i63 = load ptr, ptr %84, align 8
  %.not1217.i64 = icmp eq ptr %.016.i63, null
  br i1 %.not1217.i64, label %._crit_edge.i69, label %.lr.ph.i65

.lr.ph.i65:                                       ; preds = %dom_search_child.exit.i62, %.lr.ph.i65
  %.018.i66 = phi ptr [ %.0.i67, %.lr.ph.i65 ], [ %.016.i63, %dom_search_child.exit.i62 ]
  tail call void @xmlUnlinkNode(ptr noundef nonnull %.018.i66) #11
  %85 = tail call ptr @xmlAddChild(ptr noundef %0, ptr noundef nonnull %.018.i66) #11
  %.0.i67 = load ptr, ptr %84, align 8
  %.not12.i68 = icmp eq ptr %.0.i67, null
  br i1 %.not12.i68, label %._crit_edge.i69, label %.lr.ph.i65

._crit_edge.i69:                                  ; preds = %.lr.ph.i65, %dom_search_child.exit.i62
  tail call void @xmlFreeNode(ptr noundef nonnull %.011.i.i59) #11
  br label %dom_place_remove_element_and_hoist_children.exit70

dom_place_remove_element_and_hoist_children.exit70: ; preds = %82, %.preheader, %56, %._crit_edge.i69, %.critedge, %dom_place_remove_element_and_hoist_children.exit40, %dom_place_remove_element_and_hoist_children.exit55, %3
  ret void
}